; Function Attrs: mustprogress uwtable
define void @_ZN6icu_7512RegexPatternC2ERKS0_(ptr noundef nonnull align 8 dereferenceable(200) %this, ptr noundef nonnull align 8 dereferenceable(200) %other) unnamed_addr #1 align 2 personality ptr @__gxx_personality_v0 {
invoke.cont:
  store ptr getelementptr inbounds ({ [15 x ptr] }, ptr @_ZTVN6icu_7512RegexPatternE, i64 0, i32 0, i64 2), ptr %this, align 8
  %fLiteralText = getelementptr inbounds i8, ptr %this, i64 40
  store ptr getelementptr inbounds ({ [13 x ptr] }, ptr @_ZTVN6icu_7513UnicodeStringE, i64 0, i32 0, i64 2), ptr %fLiteralText, align 8
  %fUnion2.i = getelementptr inbounds i8, ptr %this, i64 48
  store i16 2, ptr %fUnion2.i, align 8
  invoke void @_ZN6icu_7512RegexPattern4initEv(ptr noundef nonnull align 8 dereferenceable(200) %this)
          to label %invoke.cont3 unwind label %lpad2

invoke.cont3:                                     ; preds = %invoke.cont
  %call = invoke noundef nonnull align 8 dereferenceable(200) ptr @_ZN6icu_7512RegexPatternaSERKS0_(ptr noundef nonnull align 8 dereferenceable(200) %this, ptr noundef nonnull align 8 dereferenceable(200) %other)
          to label %invoke.cont4 unwind label %lpad2

invoke.cont4:                                     ; preds = %invoke.cont3
  ret void

lpad2:                                            ; preds = %invoke.cont3, %invoke.cont
  %0 = landingpad { ptr, i32 }
          cleanup
  tail call void @_ZN6icu_7513UnicodeStringD1Ev(ptr noundef nonnull align 8 dereferenceable(64) %fLiteralText) #11
  tail call void @_ZN6icu_757UObjectD2Ev(ptr noundef nonnull align 8 dereferenceable(8) %this) #11
  resume { ptr, i32 } %0
}